target datalayout = "e-m:e-p270:32:32-p271:32:32-p272:64:64-i64:64-i128:128-f80:128-n8:16:32:64-S128"
target triple = "x86_64-pc-linux-gnu"

%"class.std::vector.77" = type { %"struct.std::_Vector_base.78" }
%"struct.std::_Vector_base.78" = type { %"struct.std::_Vector_base<int, std::allocator<int>>::_Vector_impl" }
%"struct.std::_Vector_base<int, std::allocator<int>>::_Vector_impl" = type { %"struct.std::_Vector_base<int, std::allocator<int>>::_Vector_impl_data" }
%"struct.std::_Vector_base<int, std::allocator<int>>::_Vector_impl_data" = type { ptr, ptr, ptr }
%"class.gmx::IOptionValueStore" = type { ptr }
%"class.gmx::ArrayRef.87" = type { %"struct.gmx::ArrayRefIter.88", %"struct.gmx::ArrayRefIter.88" }
%"struct.gmx::ArrayRefIter.88" = type { ptr }
%"class.gmx::internal::EnumIndexStore.101" = type { %"class.gmx::IOptionValueStore", %"class.std::vector.77", ptr, ptr }

; Function Attrs: mustprogress nounwind uwtable
define linkonce_odr noundef ptr @_ZNKSt6vectorIiSaIiEE11_M_data_ptrIiEEPT_S4_(ptr noundef nonnull align 8 dereferenceable(24) %0, ptr noundef %1) #3 comdat align 2 {
  %3 = alloca ptr, align 8
  %4 = alloca ptr, align 8
  store ptr %0, ptr %3, align 8, !tbaa !103
  store ptr %1, ptr %4, align 8, !tbaa !279
  %5 = load ptr, ptr %4, align 8, !tbaa !279
  ret ptr %5
}

; Function Attrs: mustprogress nounwind uwtable
define linkonce_odr noundef i64 @_ZNKSt6vectorIiSaIiEE4sizeEv(ptr noundef nonnull align 8 dereferenceable(24) %0) #3 comdat align 2 {
  %2 = alloca ptr, align 8
  store ptr %0, ptr %2, align 8, !tbaa !103
  %3 = load ptr, ptr %2, align 8
  %4 = getelementptr inbounds nuw %"struct.std::_Vector_base.78", ptr %3, i32 0, i32 0
  %5 = getelementptr inbounds nuw %"struct.std::_Vector_base<int, std::allocator<int>>::_Vector_impl_data", ptr %4, i32 0, i32 1
  %6 = load ptr, ptr %5, align 8, !tbaa !281
  %7 = getelementptr inbounds nuw %"struct.std::_Vector_base.78", ptr %3, i32 0, i32 0
  %8 = getelementptr inbounds nuw %"struct.std::_Vector_base<int, std::allocator<int>>::_Vector_impl_data", ptr %7, i32 0, i32 0
  %9 = load ptr, ptr %8, align 8, !tbaa !280
  %10 = ptrtoint ptr %6 to i64
  %11 = ptrtoint ptr %9 to i64
  %12 = sub i64 %10, %11
  %13 = sdiv exact i64 %12, 4
  ret i64 %13
}

; Function Attrs: mustprogress nounwind uwtable
define linkonce_odr void @_ZN3gmx12ArrayRefIterIiEC2EPi(ptr noundef nonnull align 8 dereferenceable(8) %0, ptr noundef %1) unnamed_addr #3 comdat align 2 {
  %3 = alloca ptr, align 8
  %4 = alloca ptr, align 8
  store ptr %0, ptr %3, align 8, !tbaa !303
  store ptr %1, ptr %4, align 8, !tbaa !279
  %5 = load ptr, ptr %3, align 8
  %6 = getelementptr inbounds nuw %"struct.gmx::ArrayRefIter.88", ptr %5, i32 0, i32 0
  %7 = load ptr, ptr %4, align 8, !tbaa !279
  store ptr %7, ptr %6, align 8, !tbaa !305
  ret void
}

; Function Attrs: mustprogress nounwind uwtable
define linkonce_odr noundef ptr @_ZNSt6vectorIiSaIiEE4dataEv(ptr noundef nonnull align 8 dereferenceable(24) %0) #3 comdat align 2 {
  %2 = alloca ptr, align 8
  store ptr %0, ptr %2, align 8, !tbaa !103
  %3 = load ptr, ptr %2, align 8
  %4 = getelementptr inbounds nuw %"struct.std::_Vector_base.78", ptr %3, i32 0, i32 0
  %5 = getelementptr inbounds nuw %"struct.std::_Vector_base<int, std::allocator<int>>::_Vector_impl_data", ptr %4, i32 0, i32 0
  %6 = load ptr, ptr %5, align 8, !tbaa !280
  %7 = call noundef ptr @_ZNKSt6vectorIiSaIiEE11_M_data_ptrIiEEPT_S4_(ptr noundef nonnull align 8 dereferenceable(24) %3, ptr noundef %6) #20
  ret ptr %7
}

; Function Attrs: mustprogress nounwind uwtable
define linkonce_odr void @_ZN3gmx8ArrayRefIiEC2IRSt6vectorIiSaIiEEvEEOT_(ptr noundef nonnull align 8 dereferenceable(16) %0, ptr noundef nonnull align 8 dereferenceable(24) %1) unnamed_addr #3 comdat align 2 {
  %3 = alloca ptr, align 8
  %4 = alloca ptr, align 8
  store ptr %0, ptr %3, align 8, !tbaa !301
  store ptr %1, ptr %4, align 8, !tbaa !103
  %5 = load ptr, ptr %3, align 8
  %6 = getelementptr inbounds nuw %"class.gmx::ArrayRef.87", ptr %5, i32 0, i32 0
  %7 = load ptr, ptr %4, align 8, !tbaa !103
  %8 = call noundef ptr @_ZNSt6vectorIiSaIiEE4dataEv(ptr noundef nonnull align 8 dereferenceable(24) %7) #20
  call void @_ZN3gmx12ArrayRefIterIiEC2EPi(ptr noundef nonnull align 8 dereferenceable(8) %6, ptr noundef %8) #20
  %9 = getelementptr inbounds nuw %"class.gmx::ArrayRef.87", ptr %5, i32 0, i32 1
  %10 = load ptr, ptr %4, align 8, !tbaa !103
  %11 = call noundef ptr @_ZNSt6vectorIiSaIiEE4dataEv(ptr noundef nonnull align 8 dereferenceable(24) %10) #20
  %12 = load ptr, ptr %4, align 8, !tbaa !103
  %13 = call noundef i64 @_ZNKSt6vectorIiSaIiEE4sizeEv(ptr noundef nonnull align 8 dereferenceable(24) %12) #20
  %14 = getelementptr inbounds nuw i32, ptr %11, i64 %13
  call void @_ZN3gmx12ArrayRefIterIiEC2EPi(ptr noundef nonnull align 8 dereferenceable(8) %9, ptr noundef %14) #20
  ret void
}

; Function Attrs: mustprogress uwtable
define internal { ptr, ptr } @_ZN3gmx8internal14EnumIndexStoreINS_15analysismodules12_GLOBAL__N_19GroupTypeEE6valuesEv(ptr noundef nonnull align 8 dereferenceable(48) %0) unnamed_addr #0 align 2 {
  %2 = alloca %"class.gmx::ArrayRef.87", align 8
  %3 = alloca ptr, align 8
  store ptr %0, ptr %3, align 8, !tbaa !364
  %4 = load ptr, ptr %3, align 8
  %5 = getelementptr inbounds nuw %"class.gmx::internal::EnumIndexStore.101", ptr %4, i32 0, i32 1
  call void @_ZN3gmx8ArrayRefIiEC2IRSt6vectorIiSaIiEEvEEOT_(ptr noundef nonnull align 8 dereferenceable(16) %2, ptr noundef nonnull align 8 dereferenceable(24) %5)
  %6 = load { ptr, ptr }, ptr %2, align 8
  ret { ptr, ptr } %6
}